; ModuleID = '6/778.c'
source_filename = "6/778.c"
target datalayout = "e-m:e-p270:32:32-p271:32:32-p272:64:64-i64:64-f80:128-n8:16:32:64-S128"
target triple = "x86_64-pc-linux-gnu"

@.str = private unnamed_addr constant [3 x i8] c"%d\00", align 1
@.str.1 = private unnamed_addr constant [5 x i8] c"%d%d\00", align 1
@.str.2 = private unnamed_addr constant [4 x i8] c"%d\0A\00", align 1

; Function Attrs: noinline nounwind uwtable
define dso_local i32 @main(i32 %0, i8** %1) #0 {
  %3 = alloca i32, align 4
  %4 = alloca i32, align 4
  %5 = alloca i8**, align 8
  %6 = alloca i32, align 4
  %7 = alloca i32, align 4
  %8 = alloca i32, align 4
  %9 = alloca i32, align 4
  %10 = alloca i32, align 4
  %11 = alloca i32, align 4
  %12 = alloca i32, align 4
  %13 = alloca [100 x [100 x i32]], align 16
  store i32 0, i32* %3, align 4
  store i32 %0, i32* %4, align 4
  store i8** %1, i8*** %5, align 8
  store i32 0, i32* %12, align 4
  %14 = call i32 (i8*, ...) @__isoc99_scanf(i8* getelementptr inbounds ([3 x i8], [3 x i8]* @.str, i64 0, i64 0), i32* %6)
  store i32 0, i32* %11, align 4
  br label %15

15:                                               ; preds = %92, %2
  %16 = load i32, i32* %11, align 4
  %17 = load i32, i32* %6, align 4
  %18 = icmp slt i32 %16, %17
  br i1 %18, label %19, label %95

19:                                               ; preds = %15
  %20 = call i32 (i8*, ...) @__isoc99_scanf(i8* getelementptr inbounds ([5 x i8], [5 x i8]* @.str.1, i64 0, i64 0), i32* %7, i32* %8)
  store i32 0, i32* %12, align 4
  store i32 0, i32* %9, align 4
  br label %21

21:                                               ; preds = %86, %19
  %22 = load i32, i32* %9, align 4
  %23 = load i32, i32* %7, align 4
  %24 = icmp slt i32 %22, %23
  br i1 %24, label %25, label %89

25:                                               ; preds = %21
  store i32 0, i32* %10, align 4
  br label %26

26:                                               ; preds = %82, %25
  %27 = load i32, i32* %10, align 4
  %28 = load i32, i32* %8, align 4
  %29 = icmp slt i32 %27, %28
  br i1 %29, label %30, label %85

30:                                               ; preds = %26
  %31 = load i32, i32* %9, align 4
  %32 = sext i32 %31 to i64
  %33 = getelementptr inbounds [100 x [100 x i32]], [100 x [100 x i32]]* %13, i64 0, i64 %32
  %34 = load i32, i32* %10, align 4
  %35 = sext i32 %34 to i64
  %36 = getelementptr inbounds [100 x i32], [100 x i32]* %33, i64 0, i64 %35
  %37 = call i32 (i8*, ...) @__isoc99_scanf(i8* getelementptr inbounds ([3 x i8], [3 x i8]* @.str, i64 0, i64 0), i32* %36)
  %38 = load i32, i32* %9, align 4
  %39 = icmp eq i32 %38, 0
  br i1 %39, label %45, label %40

40:                                               ; preds = %30
  %41 = load i32, i32* %9, align 4
  %42 = load i32, i32* %7, align 4
  %43 = sub nsw i32 %42, 1
  %44 = icmp eq i32 %41, %43
  br i1 %44, label %45, label %55

45:                                               ; preds = %40, %30
  %46 = load i32, i32* %9, align 4
  %47 = sext i32 %46 to i64
  %48 = getelementptr inbounds [100 x [100 x i32]], [100 x [100 x i32]]* %13, i64 0, i64 %47
  %49 = load i32, i32* %10, align 4
  %50 = sext i32 %49 to i64
  %51 = getelementptr inbounds [100 x i32], [100 x i32]* %48, i64 0, i64 %50
  %52 = load i32, i32* %51, align 4
  %53 = load i32, i32* %12, align 4
  %54 = add nsw i32 %53, %52
  store i32 %54, i32* %12, align 4
  br label %55

55:                                               ; preds = %45, %40
  %56 = load i32, i32* %9, align 4
  %57 = icmp sgt i32 %56, 0
  br i1 %57, label %58, label %81

58:                                               ; preds = %55
  %59 = load i32, i32* %9, align 4
  %60 = load i32, i32* %7, align 4
  %61 = sub nsw i32 %60, 1
  %62 = icmp slt i32 %59, %61
  br i1 %62, label %63, label %81

63:                                               ; preds = %58
  %64 = load i32, i32* %10, align 4
  %65 = icmp eq i32 %64, 0
  br i1 %65, label %71, label %66

66:                                               ; preds = %63
  %67 = load i32, i32* %10, align 4
  %68 = load i32, i32* %8, align 4
  %69 = sub nsw i32 %68, 1
  %70 = icmp eq i32 %67, %69
  br i1 %70, label %71, label %81

71:                                               ; preds = %66, %63
  %72 = load i32, i32* %9, align 4
  %73 = sext i32 %72 to i64
  %74 = getelementptr inbounds [100 x [100 x i32]], [100 x [100 x i32]]* %13, i64 0, i64 %73
  %75 = load i32, i32* %10, align 4
  %76 = sext i32 %75 to i64
  %77 = getelementptr inbounds [100 x i32], [100 x i32]* %74, i64 0, i64 %76
  %78 = load i32, i32* %77, align 4
  %79 = load i32, i32* %12, align 4
  %80 = add nsw i32 %79, %78
  store i32 %80, i32* %12, align 4
  br label %81

81:                                               ; preds = %71, %66, %58, %55
  br label %82

82:                                               ; preds = %81
  %83 = load i32, i32* %10, align 4
  %84 = add nsw i32 %83, 1
  store i32 %84, i32* %10, align 4
  br label %26

85:                                               ; preds = %26
  br label %86

86:                                               ; preds = %85
  %87 = load i32, i32* %9, align 4
  %88 = add nsw i32 %87, 1
  store i32 %88, i32* %9, align 4
  br label %21

89:                                               ; preds = %21
  %90 = load i32, i32* %12, align 4
  %91 = call i32 (i8*, ...) @printf(i8* getelementptr inbounds ([4 x i8], [4 x i8]* @.str.2, i64 0, i64 0), i32 %90)
  br label %92

92:                                               ; preds = %89
  %93 = load i32, i32* %11, align 4
  %94 = add nsw i32 %93, 1
  store i32 %94, i32* %11, align 4
  br label %15

95:                                               ; preds = %15
  ret i32 0
}

declare dso_local i32 @__isoc99_scanf(i8*, ...) #1

declare dso_local i32 @printf(i8*, ...) #1


!llvm.module.flags = !{!0}
!llvm.ident = !{!1}

!0 = !{i32 1, !"wchar_size", i32 4}
!1 = !{!"clang version 10.0.0-4ubuntu1 "}
